; Function Attrs: mustprogress uwtable
define void @_ZN7rocksdb16ImmutableOptionsC2ERKNS_9DBOptionsERKNS_18ImmutableCFOptionsE(ptr noundef nonnull align 8 dereferenceable(857) %this, ptr noundef nonnull align 8 dereferenceable(688) %db_options, ptr noundef nonnull align 8 dereferenceable(281) %cf_options) unnamed_addr #2 align 2 personality ptr @__gxx_personality_v0 {
entry:
  tail call void @_ZN7rocksdb18ImmutableDBOptionsC2ERKNS_9DBOptionsE(ptr noundef nonnull align 8 dereferenceable(569) %this, ptr noundef nonnull align 8 dereferenceable(688) %db_options)
  %0 = getelementptr inbounds i8, ptr %this, i64 576
  invoke void @_ZN7rocksdb18ImmutableCFOptionsC2ERKS0_(ptr noundef nonnull align 8 dereferenceable(281) %0, ptr noundef nonnull align 8 dereferenceable(281) %cf_options)
          to label %invoke.cont unwind label %lpad

invoke.cont:                                      ; preds = %entry
  ret void

lpad:                                             ; preds = %entry
  %1 = landingpad { ptr, i32 }
          cleanup
  tail call void @_ZN7rocksdb18ImmutableDBOptionsD2Ev(ptr noundef nonnull align 8 dereferenceable(569) %this) #27
  resume { ptr, i32 } %1
}